target datalayout = "e-m:e-p270:32:32-p271:32:32-p272:64:64-i64:64-i128:128-f80:128-n8:16:32:64-S128"
target triple = "x86_64-pc-linux-gnu"

; Function Attrs: nounwind uwtable
define hidden void @av1_dr_prediction_z1_c(ptr noundef %0, i64 noundef %1, i32 noundef %2, i32 noundef %3, ptr noundef %4, ptr noundef %5, i32 noundef %6, i32 noundef %7, i32 noundef %8) #0 {
  %10 = alloca ptr, align 8
  %11 = alloca i64, align 8
  %12 = alloca i32, align 4
  %13 = alloca i32, align 4
  %14 = alloca ptr, align 8
  %15 = alloca ptr, align 8
  %16 = alloca i32, align 4
  %17 = alloca i32, align 4
  %18 = alloca i32, align 4
  %19 = alloca i32, align 4
  %20 = alloca i32, align 4
  %21 = alloca i32, align 4
  %22 = alloca i32, align 4
  %23 = alloca i32, align 4
  %24 = alloca i32, align 4
  %25 = alloca i32, align 4
  %26 = alloca i32, align 4
  %27 = alloca i32, align 4
  %28 = alloca i32, align 4
  store ptr %0, ptr %10, align 8
  store i64 %1, ptr %11, align 8
  store i32 %2, ptr %12, align 4
  store i32 %3, ptr %13, align 4
  store ptr %4, ptr %14, align 8
  store ptr %5, ptr %15, align 8
  store i32 %6, ptr %16, align 4
  store i32 %7, ptr %17, align 4
  store i32 %8, ptr %18, align 4
  %29 = load i32, ptr %12, align 4
  %30 = load i32, ptr %13, align 4
  %31 = add nsw i32 %29, %30
  %32 = sub nsw i32 %31, 1
  %33 = load i32, ptr %16, align 4
  %34 = shl i32 %32, %33
  store i32 %34, ptr %25, align 4
  %35 = load i32, ptr %16, align 4
  %36 = sub nsw i32 6, %35
  store i32 %36, ptr %26, align 4
  %37 = load i32, ptr %16, align 4
  %38 = shl i32 1, %37
  store i32 %38, ptr %27, align 4
  %39 = load i32, ptr %17, align 4
  store i32 %39, ptr %21, align 4
  store i32 0, ptr %19, align 4
  br label %40

40:                                               ; preds = %136, %9
  %41 = load i32, ptr %19, align 4
  %42 = load i32, ptr %13, align 4
  %43 = icmp slt i32 %41, %42
  br i1 %43, label %44, label %145

44:                                               ; preds = %40
  %45 = load i32, ptr %21, align 4
  %46 = load i32, ptr %26, align 4
  %47 = ashr i32 %45, %46
  store i32 %47, ptr %22, align 4
  %48 = load i32, ptr %21, align 4
  %49 = load i32, ptr %16, align 4
  %50 = shl i32 %48, %49
  %51 = and i32 %50, 63
  %52 = ashr i32 %51, 1
  store i32 %52, ptr %23, align 4
  %53 = load i32, ptr %22, align 4
  %54 = load i32, ptr %25, align 4
  %55 = icmp sge i32 %53, %54
  br i1 %55, label %56, label %81

56:                                               ; preds = %44
  %57 = load i32, ptr %19, align 4
  store i32 %57, ptr %28, align 4
  br label %58

58:                                               ; preds = %77, %56
  %59 = load i32, ptr %28, align 4
  %60 = load i32, ptr %13, align 4
  %61 = icmp slt i32 %59, %60
  br i1 %61, label %62, label %80

62:                                               ; preds = %58
  %63 = load ptr, ptr %10, align 8
  %64 = load ptr, ptr %14, align 8
  %65 = load i32, ptr %25, align 4
  %66 = sext i32 %65 to i64
  %67 = getelementptr inbounds i8, ptr %64, i64 %66
  %68 = load i8, ptr %67, align 1
  %69 = zext i8 %68 to i32
  %70 = trunc i32 %69 to i8
  %71 = load i32, ptr %12, align 4
  %72 = sext i32 %71 to i64
  %73 = mul i64 %72, 1
  call void @llvm.memset.p0.i64(ptr align 1 %63, i8 %70, i64 %73, i1 false)
  %74 = load i64, ptr %11, align 8
  %75 = load ptr, ptr %10, align 8
  %76 = getelementptr inbounds i8, ptr %75, i64 %74
  store ptr %76, ptr %10, align 8
  br label %77

77:                                               ; preds = %62
  %78 = load i32, ptr %28, align 4
  %79 = add nsw i32 %78, 1
  store i32 %79, ptr %28, align 4
  br label %58, !llvm.loop !4

80:                                               ; preds = %58
  br label %145

81:                                               ; preds = %44
  store i32 0, ptr %20, align 4
  br label %82

82:                                               ; preds = %129, %81
  %83 = load i32, ptr %20, align 4
  %84 = load i32, ptr %12, align 4
  %85 = icmp slt i32 %83, %84
  br i1 %85, label %86, label %135

86:                                               ; preds = %82
  %87 = load i32, ptr %22, align 4
  %88 = load i32, ptr %25, align 4
  %89 = icmp slt i32 %87, %88
  br i1 %89, label %90, label %118

90:                                               ; preds = %86
  %91 = load ptr, ptr %14, align 8
  %92 = load i32, ptr %22, align 4
  %93 = sext i32 %92 to i64
  %94 = getelementptr inbounds i8, ptr %91, i64 %93
  %95 = load i8, ptr %94, align 1
  %96 = zext i8 %95 to i32
  %97 = load i32, ptr %23, align 4
  %98 = sub nsw i32 32, %97
  %99 = mul nsw i32 %96, %98
  %100 = load ptr, ptr %14, align 8
  %101 = load i32, ptr %22, align 4
  %102 = add nsw i32 %101, 1
  %103 = sext i32 %102 to i64
  %104 = getelementptr inbounds i8, ptr %100, i64 %103
  %105 = load i8, ptr %104, align 1
  %106 = zext i8 %105 to i32
  %107 = load i32, ptr %23, align 4
  %108 = mul nsw i32 %106, %107
  %109 = add nsw i32 %99, %108
  store i32 %109, ptr %24, align 4
  %110 = load i32, ptr %24, align 4
  %111 = add nsw i32 %110, 16
  %112 = ashr i32 %111, 5
  %113 = trunc i32 %112 to i8
  %114 = load ptr, ptr %10, align 8
  %115 = load i32, ptr %20, align 4
  %116 = sext i32 %115 to i64
  %117 = getelementptr inbounds i8, ptr %114, i64 %116
  store i8 %113, ptr %117, align 1
  br label %128

118:                                              ; preds = %86
  %119 = load ptr, ptr %14, align 8
  %120 = load i32, ptr %25, align 4
  %121 = sext i32 %120 to i64
  %122 = getelementptr inbounds i8, ptr %119, i64 %121
  %123 = load i8, ptr %122, align 1
  %124 = load ptr, ptr %10, align 8
  %125 = load i32, ptr %20, align 4
  %126 = sext i32 %125 to i64
  %127 = getelementptr inbounds i8, ptr %124, i64 %126
  store i8 %123, ptr %127, align 1
  br label %128

128:                                              ; preds = %118, %90
  br label %129

129:                                              ; preds = %128
  %130 = load i32, ptr %20, align 4
  %131 = add nsw i32 %130, 1
  store i32 %131, ptr %20, align 4
  %132 = load i32, ptr %27, align 4
  %133 = load i32, ptr %22, align 4
  %134 = add nsw i32 %133, %132
  store i32 %134, ptr %22, align 4
  br label %82, !llvm.loop !6

135:                                              ; preds = %82
  br label %136

136:                                              ; preds = %135
  %137 = load i32, ptr %19, align 4
  %138 = add nsw i32 %137, 1
  store i32 %138, ptr %19, align 4
  %139 = load i64, ptr %11, align 8
  %140 = load ptr, ptr %10, align 8
  %141 = getelementptr inbounds i8, ptr %140, i64 %139
  store ptr %141, ptr %10, align 8
  %142 = load i32, ptr %17, align 4
  %143 = load i32, ptr %21, align 4
  %144 = add nsw i32 %143, %142
  store i32 %144, ptr %21, align 4
  br label %40, !llvm.loop !7

145:                                              ; preds = %80, %40
  ret void
}