; Function Attrs: nofree norecurse nosync nounwind memory(argmem: readwrite) uwtable
define hidden void @av1_dr_prediction_z1_c(ptr nocapture noundef writeonly %0, i64 noundef %1, i32 noundef %2, i32 noundef %3, ptr nocapture noundef readonly %4, ptr nocapture noundef readnone %5, i32 noundef %6, i32 noundef %7, i32 noundef %8) local_unnamed_addr #0 {
  %10 = add i32 %2, -1
  %11 = add i32 %10, %3
  %12 = shl i32 %11, %6
  %13 = sub nsw i32 6, %6
  %14 = shl nuw i32 1, %6
  %15 = icmp sgt i32 %3, 0
  br i1 %15, label %.lr.ph67, label %.loopexit

.lr.ph67:                                         ; preds = %9
  %16 = icmp sgt i32 %2, 0
  %17 = sext i32 %12 to i64
  %18 = getelementptr inbounds i8, ptr %4, i64 %17
  br i1 %16, label %.lr.ph67.split.us.preheader, label %.lr.ph67.split

.lr.ph67.split.us.preheader:                      ; preds = %.lr.ph67
  %19 = sext i32 %14 to i64
  %wide.trip.count = zext nneg i32 %2 to i64
  br label %.lr.ph67.split.us

.lr.ph67.split.us:                                ; preds = %.lr.ph67.split.us.preheader, %._crit_edge.us
  %.04865.us = phi ptr [ %46, %._crit_edge.us ], [ %0, %.lr.ph67.split.us.preheader ]
  %.04964.us = phi i32 [ %45, %._crit_edge.us ], [ 0, %.lr.ph67.split.us.preheader ]
  %.05163.us = phi i32 [ %47, %._crit_edge.us ], [ %7, %.lr.ph67.split.us.preheader ]
  %20 = ashr i32 %.05163.us, %13
  %21 = shl i32 %.05163.us, %6
  %22 = lshr i32 %21, 1
  %23 = and i32 %22, 31
  %.not.us = icmp slt i32 %20, %12
  br i1 %.not.us, label %.preheader57.us, label %.preheader

24:                                               ; preds = %.preheader57.us, %41
  %indvars.iv78 = phi i64 [ %44, %.preheader57.us ], [ %indvars.iv.next79, %41 ]
  %indvars.iv = phi i64 [ 0, %.preheader57.us ], [ %indvars.iv.next, %41 ]
  %25 = icmp slt i64 %indvars.iv78, %17
  br i1 %25, label %28, label %26

26:                                               ; preds = %24
  %27 = load i8, ptr %18, align 1
  br label %41

28:                                               ; preds = %24
  %29 = getelementptr inbounds i8, ptr %4, i64 %indvars.iv78
  %30 = load i8, ptr %29, align 1
  %31 = zext i8 %30 to i32
  %32 = mul nuw nsw i32 %43, %31
  %33 = getelementptr i8, ptr %29, i64 1
  %34 = load i8, ptr %33, align 1
  %35 = zext i8 %34 to i32
  %36 = mul nuw nsw i32 %23, %35
  %37 = add nuw nsw i32 %32, 16
  %38 = add nuw nsw i32 %37, %36
  %39 = lshr i32 %38, 5
  %40 = trunc i32 %39 to i8
  br label %41

41:                                               ; preds = %28, %26
  %.sink = phi i8 [ %40, %28 ], [ %27, %26 ]
  %42 = getelementptr inbounds i8, ptr %.04865.us, i64 %indvars.iv
  store i8 %.sink, ptr %42, align 1
  %indvars.iv.next = add nuw nsw i64 %indvars.iv, 1
  %indvars.iv.next79 = add nsw i64 %indvars.iv78, %19
  %exitcond83.not = icmp eq i64 %indvars.iv.next, %wide.trip.count
  br i1 %exitcond83.not, label %._crit_edge.us, label %24, !llvm.loop !4

.preheader57.us:                                  ; preds = %.lr.ph67.split.us
  %43 = sub nuw nsw i32 32, %23
  %44 = sext i32 %20 to i64
  br label %24

._crit_edge.us:                                   ; preds = %41
  %45 = add nuw nsw i32 %.04964.us, 1
  %46 = getelementptr inbounds i8, ptr %.04865.us, i64 %1
  %47 = add nsw i32 %.05163.us, %7
  %exitcond84.not = icmp eq i32 %45, %3
  br i1 %exitcond84.not, label %.loopexit, label %.lr.ph67.split.us, !llvm.loop !6

.lr.ph67.split:                                   ; preds = %.lr.ph67, %.preheader57
  %.04865 = phi ptr [ %50, %.preheader57 ], [ %0, %.lr.ph67 ]
  %.04964 = phi i32 [ %49, %.preheader57 ], [ 0, %.lr.ph67 ]
  %.05163 = phi i32 [ %51, %.preheader57 ], [ %7, %.lr.ph67 ]
  %48 = ashr i32 %.05163, %13
  %.not = icmp slt i32 %48, %12
  br i1 %.not, label %.preheader57, label %.preheader

.preheader57:                                     ; preds = %.lr.ph67.split
  %49 = add nuw nsw i32 %.04964, 1
  %50 = getelementptr inbounds i8, ptr %.04865, i64 %1
  %51 = add nsw i32 %.05163, %7
  %exitcond.not = icmp eq i32 %49, %3
  br i1 %exitcond.not, label %.loopexit, label %.lr.ph67.split, !llvm.loop !6

.preheader:                                       ; preds = %.lr.ph67.split, %.lr.ph67.split.us
  %.us-phi = phi i32 [ %.04964.us, %.lr.ph67.split.us ], [ %.04964, %.lr.ph67.split ]
  %.us-phi68 = phi ptr [ %.04865.us, %.lr.ph67.split.us ], [ %.04865, %.lr.ph67.split ]
  %52 = icmp slt i32 %.us-phi, %3
  br i1 %52, label %.lr.ph, label %.loopexit

.lr.ph:                                           ; preds = %.preheader
  %53 = sext i32 %2 to i64
  br label %54

54:                                               ; preds = %.lr.ph, %54
  %.070 = phi i32 [ %.us-phi, %.lr.ph ], [ %57, %54 ]
  %.169 = phi ptr [ %.us-phi68, %.lr.ph ], [ %56, %54 ]
  %55 = load i8, ptr %18, align 1
  tail call void @llvm.memset.p0.i64(ptr align 1 %.169, i8 %55, i64 %53, i1 false)
  %56 = getelementptr inbounds i8, ptr %.169, i64 %1
  %57 = add nuw nsw i32 %.070, 1
  %exitcond85.not = icmp eq i32 %57, %3
  br i1 %exitcond85.not, label %.loopexit, label %54, !llvm.loop !7

.loopexit:                                        ; preds = %.preheader57, %._crit_edge.us, %54, %9, %.preheader
  ret void
}